(lp1
F5.7590000000000003
aF3.9260000000000002
aF3.4710000000000001
aF1.296
aF2.2469999999999999
aF2.3690000000000002
aF-0.84899999999999998
aF-1.96
aF-0.23699999999999999
aF-1.96
aF-0.51100000000000001
aF-0.23699999999999999
aF-0.40400000000000003
aF-3.6080000000000001
aF-2.6389999999999998
aF-4.1470000000000002
aF-2.7709999999999999
aF-3.0230000000000001
aF-2.8300000000000001
aF-5.8070000000000004
a.