(lp1
F7.8220000000000001
aF7.8220000000000001
aF8.4250000000000007
aF7.8220000000000001
aF7.4240000000000004
aF6.5529999999999999
aF6.5970000000000004
aF6.2389999999999999
aF5.9610000000000003
aF5.9610000000000003
aF6.5039999999999996
aF6.5039999999999996
aF5.8109999999999999
aF2.8650000000000002
aF3.0659999999999998
aF2.2530000000000001
aF2.3170000000000002
aF1.0640000000000001
aF2.0099999999999998
aF-1.206
a.